; Function Attrs: mustprogress uwtable
define dso_local noundef ptr @_ZN16DefaultOutputMgr14CreateInstanceEv() local_unnamed_addr #5 align 2 personality ptr @__gxx_personality_v0 {
  %1 = alloca %"class.std::__cxx11::basic_string", align 8
  %2 = load ptr, ptr @_ZN16DefaultOutputMgr9instance_E, align 8, !tbaa !4
  %.not = icmp eq ptr %2, null
  br i1 %.not, label %3, label %48

3:                                                ; preds = %0
  call void @llvm.lifetime.start.p0(i64 32, ptr nonnull %1) #17
  call void @_ZN9CGOptions11output_fileB5cxx11Ev(ptr dead_on_unwind nonnull writable sret(%"class.std::__cxx11::basic_string") align 8 %1)
  %4 = getelementptr inbounds nuw i8, ptr %1, i64 8
  %5 = load i64, ptr %4, align 8, !tbaa !9
  %6 = icmp eq i64 %5, 0
  br i1 %6, label %22, label %7

7:                                                ; preds = %3
  %8 = invoke noalias noundef nonnull dereferenceable(512) ptr @_Znwm(i64 noundef 512) #18
          to label %9 unwind label %16

9:                                                ; preds = %7
  %10 = load ptr, ptr %1, align 8, !tbaa !14
  invoke void @_ZNSt14basic_ofstreamIcSt11char_traitsIcEEC1EPKcSt13_Ios_Openmode(ptr noundef nonnull align 8 dereferenceable(248) %8, ptr noundef %10, i32 noundef 16)
          to label %11 unwind label %18

11:                                               ; preds = %9
  %12 = invoke noalias noundef nonnull dereferenceable(40) ptr @_Znwm(i64 noundef 40) #18
          to label %13 unwind label %16

13:                                               ; preds = %11
  invoke void @_ZN9OutputMgrC2Ev(ptr noundef nonnull align 8 dereferenceable(40) %12)
          to label %_ZN16DefaultOutputMgrC2EPSt14basic_ofstreamIcSt11char_traitsIcEE.exit unwind label %20

_ZN16DefaultOutputMgrC2EPSt14basic_ofstreamIcSt11char_traitsIcEE.exit: ; preds = %13
  store ptr getelementptr inbounds nuw inrange(-16, 72) (i8, ptr @_ZTV16DefaultOutputMgr, i64 16), ptr %12, align 8, !tbaa !15
  %14 = getelementptr inbounds nuw i8, ptr %12, i64 8
  call void @llvm.memset.p0.i64(ptr noundef nonnull align 8 dereferenceable(24) %14, i8 0, i64 24, i1 false)
  %15 = getelementptr inbounds nuw i8, ptr %12, i64 32
  store ptr %8, ptr %15, align 8, !tbaa !17
  br label %30

16:                                               ; preds = %11, %7
  %17 = landingpad { ptr, i32 }
          cleanup
  br label %40

18:                                               ; preds = %9
  %19 = landingpad { ptr, i32 }
          cleanup
  call void @_ZdlPvm(ptr noundef nonnull %8, i64 noundef 512) #19
  br label %40

20:                                               ; preds = %13
  %21 = landingpad { ptr, i32 }
          cleanup
  call void @_ZdlPvm(ptr noundef nonnull %12, i64 noundef 40) #19
  br label %40

22:                                               ; preds = %3
  %23 = invoke noalias noundef nonnull dereferenceable(40) ptr @_Znwm(i64 noundef 40) #18
          to label %24 unwind label %26

24:                                               ; preds = %22
  invoke void @_ZN9OutputMgrC2Ev(ptr noundef nonnull align 8 dereferenceable(40) %23)
          to label %_ZN16DefaultOutputMgrC2Ev.exit unwind label %28

_ZN16DefaultOutputMgrC2Ev.exit:                   ; preds = %24
  store ptr getelementptr inbounds nuw inrange(-16, 72) (i8, ptr @_ZTV16DefaultOutputMgr, i64 16), ptr %23, align 8, !tbaa !15
  %25 = getelementptr inbounds nuw i8, ptr %23, i64 8
  call void @llvm.memset.p0.i64(ptr noundef nonnull align 8 dereferenceable(32) %25, i8 0, i64 32, i1 false)
  br label %30

26:                                               ; preds = %30, %22
  %27 = landingpad { ptr, i32 }
          cleanup
  br label %40

28:                                               ; preds = %24
  %29 = landingpad { ptr, i32 }
          cleanup
  call void @_ZdlPvm(ptr noundef nonnull %23, i64 noundef 40) #19
  br label %40

30:                                               ; preds = %_ZN16DefaultOutputMgrC2Ev.exit, %_ZN16DefaultOutputMgrC2EPSt14basic_ofstreamIcSt11char_traitsIcEE.exit
  %storemerge = phi ptr [ %12, %_ZN16DefaultOutputMgrC2EPSt14basic_ofstreamIcSt11char_traitsIcEE.exit ], [ %23, %_ZN16DefaultOutputMgrC2Ev.exit ]
  store ptr %storemerge, ptr @_ZN16DefaultOutputMgr9instance_E, align 8, !tbaa !4
  invoke void @_ZN16DefaultOutputMgr4initEv(ptr noundef nonnull align 8 dereferenceable(40) %storemerge)
          to label %31 unwind label %26

31:                                               ; preds = %30
  %32 = load ptr, ptr @_ZN16DefaultOutputMgr9instance_E, align 8, !tbaa !4
  %33 = load ptr, ptr %1, align 8, !tbaa !14
  %34 = getelementptr inbounds nuw i8, ptr %1, i64 16
  %35 = icmp eq ptr %33, %34
  br i1 %35, label %_ZNKSt7__cxx1112basic_stringIcSt11char_traitsIcESaIcEE11_M_is_localEv.exit.thread.i.i, label %_ZNKSt7__cxx1112basic_stringIcSt11char_traitsIcESaIcEE11_M_is_localEv.exit.i.i

_ZNKSt7__cxx1112basic_stringIcSt11char_traitsIcESaIcEE11_M_is_localEv.exit.thread.i.i: ; preds = %31
  %36 = load i64, ptr %4, align 8, !tbaa !9
  %37 = icmp ult i64 %36, 16
  call void @llvm.assume(i1 %37)
  br label %_ZNSt7__cxx1112basic_stringIcSt11char_traitsIcESaIcEED2Ev.exit

_ZNKSt7__cxx1112basic_stringIcSt11char_traitsIcESaIcEE11_M_is_localEv.exit.i.i: ; preds = %31
  %38 = load i64, ptr %34, align 8, !tbaa !26
  %39 = add i64 %38, 1
  call void @_ZdlPvm(ptr noundef %33, i64 noundef %39) #19
  br label %_ZNSt7__cxx1112basic_stringIcSt11char_traitsIcESaIcEED2Ev.exit

_ZNSt7__cxx1112basic_stringIcSt11char_traitsIcESaIcEED2Ev.exit: ; preds = %_ZNKSt7__cxx1112basic_stringIcSt11char_traitsIcESaIcEE11_M_is_localEv.exit.thread.i.i, %_ZNKSt7__cxx1112basic_stringIcSt11char_traitsIcESaIcEE11_M_is_localEv.exit.i.i
  call void @llvm.lifetime.end.p0(i64 32, ptr nonnull %1) #17
  br label %48

40:                                               ; preds = %16, %18, %20, %28, %26
  %.pn8 = phi { ptr, i32 } [ %27, %26 ], [ %29, %28 ], [ %21, %20 ], [ %17, %16 ], [ %19, %18 ]
  %41 = load ptr, ptr %1, align 8, !tbaa !14
  %42 = getelementptr inbounds nuw i8, ptr %1, i64 16
  %43 = icmp eq ptr %41, %42
  br i1 %43, label %_ZNKSt7__cxx1112basic_stringIcSt11char_traitsIcESaIcEE11_M_is_localEv.exit.thread.i.i11, label %_ZNKSt7__cxx1112basic_stringIcSt11char_traitsIcESaIcEE11_M_is_localEv.exit.i.i10

_ZNKSt7__cxx1112basic_stringIcSt11char_traitsIcESaIcEE11_M_is_localEv.exit.thread.i.i11: ; preds = %40
  %44 = load i64, ptr %4, align 8, !tbaa !9
  %45 = icmp ult i64 %44, 16
  call void @llvm.assume(i1 %45)
  br label %_ZNSt7__cxx1112basic_stringIcSt11char_traitsIcESaIcEED2Ev.exit12

_ZNKSt7__cxx1112basic_stringIcSt11char_traitsIcESaIcEE11_M_is_localEv.exit.i.i10: ; preds = %40
  %46 = load i64, ptr %42, align 8, !tbaa !26
  %47 = add i64 %46, 1
  call void @_ZdlPvm(ptr noundef %41, i64 noundef %47) #19
  br label %_ZNSt7__cxx1112basic_stringIcSt11char_traitsIcESaIcEED2Ev.exit12

_ZNSt7__cxx1112basic_stringIcSt11char_traitsIcESaIcEED2Ev.exit12: ; preds = %_ZNKSt7__cxx1112basic_stringIcSt11char_traitsIcESaIcEE11_M_is_localEv.exit.thread.i.i11, %_ZNKSt7__cxx1112basic_stringIcSt11char_traitsIcESaIcEE11_M_is_localEv.exit.i.i10
  call void @llvm.lifetime.end.p0(i64 32, ptr nonnull %1) #17
  resume { ptr, i32 } %.pn8

48:                                               ; preds = %0, %_ZNSt7__cxx1112basic_stringIcSt11char_traitsIcESaIcEED2Ev.exit
  %.05 = phi ptr [ %32, %_ZNSt7__cxx1112basic_stringIcSt11char_traitsIcESaIcEED2Ev.exit ], [ %2, %0 ]
  ret ptr %.05
}